target datalayout = "e-m:e-p270:32:32-p271:32:32-p272:64:64-i64:64-i128:128-f80:128-n8:16:32:64-S128"
target triple = "x86_64-unknown-linux-gnu"

%struct.grpc_slice = type { ptr, %"union.grpc_slice::grpc_slice_data" }
%"union.grpc_slice::grpc_slice_data" = type { %"struct.grpc_slice::grpc_slice_data::grpc_slice_refcounted", [8 x i8] }
%"struct.grpc_slice::grpc_slice_data::grpc_slice_refcounted" = type { i64, ptr }
%struct.grpc_transport_one_way_stats = type { i64, i64, i64 }
%"struct.grpc_slice::grpc_slice_data::grpc_slice_inlined" = type { i8, [23 x i8] }

; Function Attrs: mustprogress uwtable
define void @_Z29grpc_chttp2_rst_stream_createjjP28grpc_transport_one_way_stats(ptr noalias sret(%struct.grpc_slice) align 8 %agg.result, i32 noundef %id, i32 noundef %code, ptr noundef %stats) #4 {
entry:
  %id.addr = alloca i32, align 4
  %code.addr = alloca i32, align 4
  %stats.addr = alloca ptr, align 8
  %p = alloca ptr, align 8
  store i32 %id, ptr %id.addr, align 4
  store i32 %code, ptr %code.addr, align 4
  store ptr %stats, ptr %stats.addr, align 8
  call void @grpc_slice_malloc(ptr sret(%struct.grpc_slice) align 8 %agg.result, i64 noundef 13)
  %0 = load ptr, ptr %stats.addr, align 8
  %cmp = icmp ne ptr %0, null
  br i1 %cmp, label %if.then, label %if.end

if.then:                                          ; preds = %entry
  %1 = load ptr, ptr %stats.addr, align 8
  %framing_bytes = getelementptr inbounds %struct.grpc_transport_one_way_stats, ptr %1, i32 0, i32 0
  %2 = load i64, ptr %framing_bytes, align 8
  %add = add i64 %2, 13
  store i64 %add, ptr %framing_bytes, align 8
  br label %if.end

if.end:                                           ; preds = %if.then, %entry
  %refcount = getelementptr inbounds %struct.grpc_slice, ptr %agg.result, i32 0, i32 0
  %3 = load ptr, ptr %refcount, align 8
  %tobool = icmp ne ptr %3, null
  br i1 %tobool, label %cond.true, label %cond.false

cond.true:                                        ; preds = %if.end
  %data = getelementptr inbounds %struct.grpc_slice, ptr %agg.result, i32 0, i32 1
  %bytes = getelementptr inbounds %"struct.grpc_slice::grpc_slice_data::grpc_slice_refcounted", ptr %data, i32 0, i32 1
  %4 = load ptr, ptr %bytes, align 8
  br label %cond.end

cond.false:                                       ; preds = %if.end
  %data1 = getelementptr inbounds %struct.grpc_slice, ptr %agg.result, i32 0, i32 1
  %bytes2 = getelementptr inbounds %"struct.grpc_slice::grpc_slice_data::grpc_slice_inlined", ptr %data1, i32 0, i32 1
  %arraydecay = getelementptr inbounds [23 x i8], ptr %bytes2, i64 0, i64 0
  br label %cond.end

cond.end:                                         ; preds = %cond.false, %cond.true
  %cond = phi ptr [ %4, %cond.true ], [ %arraydecay, %cond.false ]
  store ptr %cond, ptr %p, align 8
  %5 = load ptr, ptr %p, align 8
  %incdec.ptr = getelementptr inbounds i8, ptr %5, i32 1
  store ptr %incdec.ptr, ptr %p, align 8
  store i8 0, ptr %5, align 1
  %6 = load ptr, ptr %p, align 8
  %incdec.ptr3 = getelementptr inbounds i8, ptr %6, i32 1
  store ptr %incdec.ptr3, ptr %p, align 8
  store i8 0, ptr %6, align 1
  %7 = load ptr, ptr %p, align 8
  %incdec.ptr4 = getelementptr inbounds i8, ptr %7, i32 1
  store ptr %incdec.ptr4, ptr %p, align 8
  store i8 4, ptr %7, align 1
  %8 = load ptr, ptr %p, align 8
  %incdec.ptr5 = getelementptr inbounds i8, ptr %8, i32 1
  store ptr %incdec.ptr5, ptr %p, align 8
  store i8 3, ptr %8, align 1
  %9 = load ptr, ptr %p, align 8
  %incdec.ptr6 = getelementptr inbounds i8, ptr %9, i32 1
  store ptr %incdec.ptr6, ptr %p, align 8
  store i8 0, ptr %9, align 1
  %10 = load i32, ptr %id.addr, align 4
  %shr = lshr i32 %10, 24
  %conv = trunc i32 %shr to i8
  %11 = load ptr, ptr %p, align 8
  %incdec.ptr7 = getelementptr inbounds i8, ptr %11, i32 1
  store ptr %incdec.ptr7, ptr %p, align 8
  store i8 %conv, ptr %11, align 1
  %12 = load i32, ptr %id.addr, align 4
  %shr8 = lshr i32 %12, 16
  %conv9 = trunc i32 %shr8 to i8
  %13 = load ptr, ptr %p, align 8
  %incdec.ptr10 = getelementptr inbounds i8, ptr %13, i32 1
  store ptr %incdec.ptr10, ptr %p, align 8
  store i8 %conv9, ptr %13, align 1
  %14 = load i32, ptr %id.addr, align 4
  %shr11 = lshr i32 %14, 8
  %conv12 = trunc i32 %shr11 to i8
  %15 = load ptr, ptr %p, align 8
  %incdec.ptr13 = getelementptr inbounds i8, ptr %15, i32 1
  store ptr %incdec.ptr13, ptr %p, align 8
  store i8 %conv12, ptr %15, align 1
  %16 = load i32, ptr %id.addr, align 4
  %conv14 = trunc i32 %16 to i8
  %17 = load ptr, ptr %p, align 8
  %incdec.ptr15 = getelementptr inbounds i8, ptr %17, i32 1
  store ptr %incdec.ptr15, ptr %p, align 8
  store i8 %conv14, ptr %17, align 1
  %18 = load i32, ptr %code.addr, align 4
  %shr16 = lshr i32 %18, 24
  %conv17 = trunc i32 %shr16 to i8
  %19 = load ptr, ptr %p, align 8
  %incdec.ptr18 = getelementptr inbounds i8, ptr %19, i32 1
  store ptr %incdec.ptr18, ptr %p, align 8
  store i8 %conv17, ptr %19, align 1
  %20 = load i32, ptr %code.addr, align 4
  %shr19 = lshr i32 %20, 16
  %conv20 = trunc i32 %shr19 to i8
  %21 = load ptr, ptr %p, align 8
  %incdec.ptr21 = getelementptr inbounds i8, ptr %21, i32 1
  store ptr %incdec.ptr21, ptr %p, align 8
  store i8 %conv20, ptr %21, align 1
  %22 = load i32, ptr %code.addr, align 4
  %shr22 = lshr i32 %22, 8
  %conv23 = trunc i32 %shr22 to i8
  %23 = load ptr, ptr %p, align 8
  %incdec.ptr24 = getelementptr inbounds i8, ptr %23, i32 1
  store ptr %incdec.ptr24, ptr %p, align 8
  store i8 %conv23, ptr %23, align 1
  %24 = load i32, ptr %code.addr, align 4
  %conv25 = trunc i32 %24 to i8
  %25 = load ptr, ptr %p, align 8
  %incdec.ptr26 = getelementptr inbounds i8, ptr %25, i32 1
  store ptr %incdec.ptr26, ptr %p, align 8
  store i8 %conv25, ptr %25, align 1
  ret void
}