; Function Attrs: mustprogress uwtable
define void @_Z29grpc_chttp2_rst_stream_createjjP28grpc_transport_one_way_stats(ptr noalias sret(%struct.grpc_slice) align 8 %agg.result, i32 noundef %id, i32 noundef %code, ptr noundef %stats) local_unnamed_addr #3 {
entry:
  tail call void @grpc_slice_malloc(ptr sret(%struct.grpc_slice) align 8 %agg.result, i64 noundef 13)
  %cmp.not = icmp eq ptr %stats, null
  br i1 %cmp.not, label %if.end, label %if.then

if.then:                                          ; preds = %entry
  %0 = load i64, ptr %stats, align 8
  %add = add i64 %0, 13
  store i64 %add, ptr %stats, align 8
  br label %if.end

if.end:                                           ; preds = %if.then, %entry
  %1 = load ptr, ptr %agg.result, align 8
  %tobool.not = icmp eq ptr %1, null
  %bytes = getelementptr inbounds i8, ptr %agg.result, i64 16
  %2 = load ptr, ptr %bytes, align 8
  %bytes2 = getelementptr inbounds i8, ptr %agg.result, i64 9
  %cond = select i1 %tobool.not, ptr %bytes2, ptr %2
  %incdec.ptr5 = getelementptr inbounds i8, ptr %cond, i64 4
  store <4 x i8> <i8 0, i8 0, i8 4, i8 3>, ptr %cond, align 1
  %incdec.ptr6 = getelementptr inbounds i8, ptr %cond, i64 5
  store i8 0, ptr %incdec.ptr5, align 1
  %shr = lshr i32 %id, 24
  %conv = trunc i32 %shr to i8
  %incdec.ptr7 = getelementptr inbounds i8, ptr %cond, i64 6
  store i8 %conv, ptr %incdec.ptr6, align 1
  %shr8 = lshr i32 %id, 16
  %conv9 = trunc i32 %shr8 to i8
  %incdec.ptr10 = getelementptr inbounds i8, ptr %cond, i64 7
  store i8 %conv9, ptr %incdec.ptr7, align 1
  %shr11 = lshr i32 %id, 8
  %conv12 = trunc i32 %shr11 to i8
  %incdec.ptr13 = getelementptr inbounds i8, ptr %cond, i64 8
  store i8 %conv12, ptr %incdec.ptr10, align 1
  %conv14 = trunc i32 %id to i8
  %incdec.ptr15 = getelementptr inbounds i8, ptr %cond, i64 9
  store i8 %conv14, ptr %incdec.ptr13, align 1
  %shr16 = lshr i32 %code, 24
  %conv17 = trunc i32 %shr16 to i8
  %incdec.ptr18 = getelementptr inbounds i8, ptr %cond, i64 10
  store i8 %conv17, ptr %incdec.ptr15, align 1
  %shr19 = lshr i32 %code, 16
  %conv20 = trunc i32 %shr19 to i8
  %incdec.ptr21 = getelementptr inbounds i8, ptr %cond, i64 11
  store i8 %conv20, ptr %incdec.ptr18, align 1
  %shr22 = lshr i32 %code, 8
  %conv23 = trunc i32 %shr22 to i8
  %incdec.ptr24 = getelementptr inbounds i8, ptr %cond, i64 12
  store i8 %conv23, ptr %incdec.ptr21, align 1
  %conv25 = trunc i32 %code to i8
  store i8 %conv25, ptr %incdec.ptr24, align 1
  ret void
}